; Function Attrs: mustprogress nofree norecurse nosync nounwind willreturn memory(argmem: read) uwtable
define internal range(i32 0, 65536) i32 @fold_simplify_intadd_k64(ptr noundef readonly captures(none) %0) #6 {
  %2 = getelementptr inbounds nuw i8, ptr %0, i64 216
  %3 = load i64, ptr %2, align 8, !tbaa !28
  %4 = icmp eq i64 %3, 0
  br i1 %4, label %5, label %9

5:                                                ; preds = %1
  %6 = getelementptr inbounds nuw i8, ptr %0, i64 184
  %7 = load i16, ptr %6, align 8, !tbaa !28
  %8 = zext i16 %7 to i32
  br label %9

9:                                                ; preds = %1, %5
  %.0 = phi i32 [ %8, %5 ], [ 0, %1 ]
  ret i32 %.0
}